; Function Attrs: nounwind uwtable
define internal void @hmac_drbg_kdf_free(ptr noundef %0) #0 {
  %.not = icmp eq ptr %0, null
  br i1 %.not, label %15, label %2

2:                                                ; preds = %1
  %3 = getelementptr inbounds nuw i8, ptr %0, i64 168
  %4 = load ptr, ptr %3, align 8, !tbaa !3
  %5 = load ptr, ptr %0, align 8, !tbaa !16
  tail call void @EVP_MAC_CTX_free(ptr noundef %5) #5
  %6 = getelementptr inbounds nuw i8, ptr %0, i64 8
  tail call void @ossl_prov_digest_reset(ptr noundef nonnull %6) #5
  %7 = getelementptr inbounds nuw i8, ptr %0, i64 176
  %8 = load ptr, ptr %7, align 8, !tbaa !17
  %9 = getelementptr inbounds nuw i8, ptr %0, i64 192
  %10 = load i64, ptr %9, align 8, !tbaa !18
  tail call void @CRYPTO_clear_free(ptr noundef %8, i64 noundef %10, ptr noundef nonnull @.str, i32 noundef 64) #5
  %11 = getelementptr inbounds nuw i8, ptr %0, i64 184
  %12 = load ptr, ptr %11, align 8, !tbaa !19
  %13 = getelementptr inbounds nuw i8, ptr %0, i64 200
  %14 = load i64, ptr %13, align 8, !tbaa !20
  tail call void @CRYPTO_clear_free(ptr noundef %12, i64 noundef %14, ptr noundef nonnull @.str, i32 noundef 65) #5
  tail call void @OPENSSL_cleanse(ptr noundef nonnull %0, i64 noundef 216) #5
  store ptr %4, ptr %3, align 8, !tbaa !3
  tail call void @CRYPTO_free(ptr noundef nonnull %0, ptr noundef nonnull @.str, i32 noundef 76) #5
  br label %15

15:                                               ; preds = %2, %1
  ret void
}